target datalayout = "e-m:e-p270:32:32-p271:32:32-p272:64:64-i64:64-i128:128-f80:128-n8:16:32:64-S128"
target triple = "x86_64-pc-linux-gnu"

%struct.lxb_encoding_data = type { i32, ptr, ptr, ptr, ptr, ptr }
%struct.lxb_encoding_encode_t = type { ptr, ptr, i64, i64, ptr, i64, i32 }
%struct.lxb_encoding_decode_t = type { ptr, ptr, i64, i64, ptr, i64, i32, i32, i8, i8, i32, %union.anon.8 }
%union.anon.8 = type { %struct.lxb_encoding_ctx_2022_jp_t }
%struct.lxb_encoding_ctx_2022_jp_t = type { i8, i8, i32, i32, i8 }
%struct._dom_output_ctx = type { ptr, ptr, ptr, ptr, ptr, ptr, ptr, ptr }

; Function Attrs: nounwind uwtable
define internal void @lxb_encoding_decode_buf_used_set(ptr noundef %0, i64 noundef %1) #0 {
  %3 = alloca ptr, align 8
  %4 = alloca i64, align 8
  store ptr %0, ptr %3, align 8
  store i64 %1, ptr %4, align 8
  %5 = load i64, ptr %4, align 8
  %6 = load ptr, ptr %3, align 8
  %7 = getelementptr inbounds %struct.lxb_encoding_decode_t, ptr %6, i32 0, i32 3
  store i64 %5, ptr %7, align 8
  ret void
}

; Function Attrs: nounwind uwtable
define internal void @lxb_encoding_encode_buf_used_set(ptr noundef %0, i64 noundef %1) #0 {
  %3 = alloca ptr, align 8
  %4 = alloca i64, align 8
  store ptr %0, ptr %3, align 8
  store i64 %1, ptr %4, align 8
  %5 = load i64, ptr %4, align 8
  %6 = load ptr, ptr %3, align 8
  %7 = getelementptr inbounds %struct.lxb_encoding_encode_t, ptr %6, i32 0, i32 3
  store i64 %5, ptr %7, align 8
  ret void
}

; Function Attrs: nounwind uwtable
define internal i64 @lxb_encoding_encode_buf_used(ptr noundef %0) #0 {
  %2 = alloca ptr, align 8
  store ptr %0, ptr %2, align 8
  %3 = load ptr, ptr %2, align 8
  %4 = getelementptr inbounds %struct.lxb_encoding_encode_t, ptr %3, i32 0, i32 3
  %5 = load i64, ptr %4, align 8
  ret i64 %5
}

; Function Attrs: nounwind uwtable
define internal i64 @lxb_encoding_decode_buf_used(ptr noundef %0) #0 {
  %2 = alloca ptr, align 8
  store ptr %0, ptr %2, align 8
  %3 = load ptr, ptr %2, align 8
  %4 = getelementptr inbounds %struct.lxb_encoding_decode_t, ptr %3, i32 0, i32 3
  %5 = load i64, ptr %4, align 8
  ret i64 %5
}

; Function Attrs: nounwind uwtable
define internal i32 @dom_saveHTML_write_string_len(ptr noundef %0, ptr noundef %1, i64 noundef %2) #0 {
  %4 = alloca i32, align 4
  %5 = alloca ptr, align 8
  %6 = alloca ptr, align 8
  %7 = alloca i64, align 8
  %8 = alloca ptr, align 8
  %9 = alloca i32, align 4
  %10 = alloca i32, align 4
  %11 = alloca ptr, align 8
  %12 = alloca ptr, align 8
  %13 = alloca ptr, align 8
  %14 = alloca ptr, align 8
  store ptr %0, ptr %5, align 8
  store ptr %1, ptr %6, align 8
  store i64 %2, ptr %7, align 8
  %15 = load ptr, ptr %5, align 8
  store ptr %15, ptr %8, align 8
  %16 = load ptr, ptr %6, align 8
  store ptr %16, ptr %11, align 8
  %17 = load ptr, ptr %11, align 8
  %18 = load i64, ptr %7, align 8
  %19 = getelementptr inbounds i8, ptr %17, i64 %18
  store ptr %19, ptr %12, align 8
  br label %20

20:                                               ; preds = %83, %3
  %21 = load ptr, ptr %8, align 8
  %22 = getelementptr inbounds %struct._dom_output_ctx, ptr %21, i32 0, i32 1
  %23 = load ptr, ptr %22, align 8
  %24 = getelementptr inbounds %struct.lxb_encoding_data, ptr %23, i32 0, i32 2
  %25 = load ptr, ptr %24, align 8
  %26 = load ptr, ptr %8, align 8
  %27 = getelementptr inbounds %struct._dom_output_ctx, ptr %26, i32 0, i32 3
  %28 = load ptr, ptr %27, align 8
  %29 = load ptr, ptr %12, align 8
  %30 = call i32 %25(ptr noundef %28, ptr noundef %11, ptr noundef %29)
  store i32 %30, ptr %9, align 4
  %31 = load ptr, ptr %8, align 8
  %32 = getelementptr inbounds %struct._dom_output_ctx, ptr %31, i32 0, i32 4
  %33 = load ptr, ptr %32, align 8
  store ptr %33, ptr %13, align 8
  %34 = load ptr, ptr %13, align 8
  %35 = load ptr, ptr %8, align 8
  %36 = getelementptr inbounds %struct._dom_output_ctx, ptr %35, i32 0, i32 3
  %37 = load ptr, ptr %36, align 8
  %38 = call i64 @lxb_encoding_decode_buf_used(ptr noundef %37)
  %39 = getelementptr inbounds i32, ptr %34, i64 %38
  store ptr %39, ptr %14, align 8
  br label %40

40:                                               ; preds = %76, %20
  %41 = load ptr, ptr %8, align 8
  %42 = getelementptr inbounds %struct._dom_output_ctx, ptr %41, i32 0, i32 0
  %43 = load ptr, ptr %42, align 8
  %44 = getelementptr inbounds %struct.lxb_encoding_data, ptr %43, i32 0, i32 1
  %45 = load ptr, ptr %44, align 8
  %46 = load ptr, ptr %8, align 8
  %47 = getelementptr inbounds %struct._dom_output_ctx, ptr %46, i32 0, i32 2
  %48 = load ptr, ptr %47, align 8
  %49 = load ptr, ptr %14, align 8
  %50 = call i32 %45(ptr noundef %48, ptr noundef %13, ptr noundef %49)
  store i32 %50, ptr %10, align 4
  %51 = load ptr, ptr %8, align 8
  %52 = getelementptr inbounds %struct._dom_output_ctx, ptr %51, i32 0, i32 7
  %53 = load ptr, ptr %52, align 8
  %54 = load ptr, ptr %8, align 8
  %55 = getelementptr inbounds %struct._dom_output_ctx, ptr %54, i32 0, i32 6
  %56 = load ptr, ptr %55, align 8
  %57 = load ptr, ptr %8, align 8
  %58 = getelementptr inbounds %struct._dom_output_ctx, ptr %57, i32 0, i32 5
  %59 = load ptr, ptr %58, align 8
  %60 = load ptr, ptr %8, align 8
  %61 = getelementptr inbounds %struct._dom_output_ctx, ptr %60, i32 0, i32 2
  %62 = load ptr, ptr %61, align 8
  %63 = call i64 @lxb_encoding_encode_buf_used(ptr noundef %62)
  %64 = call i32 %53(ptr noundef %56, ptr noundef %59, i64 noundef %63)
  %65 = icmp ne i32 %64, 0
  %66 = xor i1 %65, true
  %67 = xor i1 %66, true
  %68 = zext i1 %67 to i32
  %69 = sext i32 %68 to i64
  %70 = icmp ne i64 %69, 0
  br i1 %70, label %71, label %72

71:                                               ; preds = %40
  store i32 -1, ptr %4, align 4
  br label %87

72:                                               ; preds = %40
  %73 = load ptr, ptr %8, align 8
  %74 = getelementptr inbounds %struct._dom_output_ctx, ptr %73, i32 0, i32 2
  %75 = load ptr, ptr %74, align 8
  call void @lxb_encoding_encode_buf_used_set(ptr noundef %75, i64 noundef 0)
  br label %76

76:                                               ; preds = %72
  %77 = load i32, ptr %10, align 4
  %78 = icmp eq i32 %77, 15
  br i1 %78, label %40, label %79

79:                                               ; preds = %76
  %80 = load ptr, ptr %8, align 8
  %81 = getelementptr inbounds %struct._dom_output_ctx, ptr %80, i32 0, i32 3
  %82 = load ptr, ptr %81, align 8
  call void @lxb_encoding_decode_buf_used_set(ptr noundef %82, i64 noundef 0)
  br label %83

83:                                               ; preds = %79
  %84 = load i32, ptr %9, align 4
  %85 = icmp eq i32 %84, 15
  br i1 %85, label %20, label %86

86:                                               ; preds = %83
  store i32 0, ptr %4, align 4
  br label %87

87:                                               ; preds = %86, %71
  %88 = load i32, ptr %4, align 4
  ret i32 %88
}