; Function Attrs: nounwind uwtable
define internal noundef i32 @dom_saveHTML_write_string_len(ptr nocapture noundef readonly %0, ptr noundef %1, i64 noundef %2) #0 {
  %4 = alloca ptr, align 8
  %5 = alloca ptr, align 8
  store ptr %1, ptr %4, align 8
  %6 = getelementptr inbounds i8, ptr %1, i64 %2
  %7 = getelementptr inbounds i8, ptr %0, i64 8
  %8 = getelementptr inbounds i8, ptr %0, i64 24
  %9 = getelementptr inbounds i8, ptr %0, i64 32
  %10 = getelementptr inbounds i8, ptr %0, i64 16
  %11 = getelementptr inbounds i8, ptr %0, i64 56
  %12 = getelementptr inbounds i8, ptr %0, i64 48
  %13 = getelementptr inbounds i8, ptr %0, i64 40
  br label %14

14:                                               ; preds = %40, %3
  %15 = load ptr, ptr %7, align 8
  %16 = getelementptr inbounds i8, ptr %15, i64 16
  %17 = load ptr, ptr %16, align 8
  %18 = load ptr, ptr %8, align 8
  %19 = call i32 %17(ptr noundef %18, ptr noundef nonnull %4, ptr noundef %6) #11
  %20 = load ptr, ptr %9, align 8
  store ptr %20, ptr %5, align 8
  %21 = load ptr, ptr %8, align 8
  %22 = getelementptr i8, ptr %21, i64 24
  %.val = load i64, ptr %22, align 8
  %23 = getelementptr inbounds i32, ptr %20, i64 %.val
  br label %24

24:                                               ; preds = %36, %14
  %25 = load ptr, ptr %0, align 8
  %26 = getelementptr inbounds i8, ptr %25, i64 8
  %27 = load ptr, ptr %26, align 8
  %28 = load ptr, ptr %10, align 8
  %29 = call i32 %27(ptr noundef %28, ptr noundef nonnull %5, ptr noundef %23) #11
  %30 = load ptr, ptr %11, align 8
  %31 = load ptr, ptr %12, align 8
  %32 = load ptr, ptr %13, align 8
  %33 = load ptr, ptr %10, align 8
  %34 = getelementptr i8, ptr %33, i64 24
  %.val19 = load i64, ptr %34, align 8
  %35 = call i32 %30(ptr noundef %31, ptr noundef %32, i64 noundef %.val19) #11
  %.not = icmp eq i32 %35, 0
  br i1 %.not, label %36, label %.loopexit

36:                                               ; preds = %24
  %37 = load ptr, ptr %10, align 8
  %38 = getelementptr inbounds i8, ptr %37, i64 24
  store i64 0, ptr %38, align 8
  %39 = icmp eq i32 %29, 15
  br i1 %39, label %24, label %40

40:                                               ; preds = %36
  %41 = load ptr, ptr %8, align 8
  %42 = getelementptr inbounds i8, ptr %41, i64 24
  store i64 0, ptr %42, align 8
  %43 = icmp eq i32 %19, 15
  br i1 %43, label %14, label %.loopexit

.loopexit:                                        ; preds = %40, %24
  %.0 = phi i32 [ -1, %24 ], [ 0, %40 ]
  ret i32 %.0
}